---
triple:          'arm64-apple-darwin'
binary-path:     '/Users/camdencambre/CS212/CS212/Program3/CalendarDateTest'
relocations:
  - { offsetInCU: 0x2F42, offset: 0x2F42, size: 0x8, addend: 0x0, symName: __ZNSt3__124__put_character_sequenceB8ue170006IcNS_11char_traitsIcEEEERNS_13basic_ostreamIT_T0_EES7_PKS4_m, symObjAddr: 0x1130, symBinAddr: 0x1000023D4, symSize: 0x1EC }
  - { offsetInCU: 0x3DAB, offset: 0x3DAB, size: 0x8, addend: 0x0, symName: __ZNSt3__111__introsortINS_17_ClassicAlgPolicyERPFbRK12CalendarDateS4_EPS2_Lb0EEEvT1_S9_T0_NS_15iterator_traitsIS9_E15difference_typeEb, symObjAddr: 0x1B34, symBinAddr: 0x100002DD8, symSize: 0x478 }
  - { offsetInCU: 0x3F02, offset: 0x3F02, size: 0x8, addend: 0x0, symName: __ZNSt3__126__insertion_sort_unguardedB8ue170006INS_17_ClassicAlgPolicyERPFbRK12CalendarDateS4_EPS2_EEvT1_S9_T0_, symObjAddr: 0x2250, symBinAddr: 0x1000034F4, symSize: 0x140 }
  - { offsetInCU: 0x3FF2, offset: 0x3FF2, size: 0x8, addend: 0x0, symName: __ZNSt3__111__sift_downB8ue170006INS_17_ClassicAlgPolicyERPFbRK12CalendarDateS4_EPS2_EEvT1_OT0_NS_15iterator_traitsIS9_E15difference_typeES9_, symObjAddr: 0x3524, symBinAddr: 0x1000047C8, symSize: 0x244 }
  - { offsetInCU: 0x409F, offset: 0x409F, size: 0x8, addend: 0x0, symName: __ZNSt3__117__floyd_sift_downB8ue170006INS_17_ClassicAlgPolicyERPFbRK12CalendarDateS4_EPS2_EET1_S9_OT0_NS_15iterator_traitsIS9_E15difference_typeE, symObjAddr: 0x3924, symBinAddr: 0x100004BC8, symSize: 0x114 }
  - { offsetInCU: 0x4137, offset: 0x4137, size: 0x8, addend: 0x0, symName: __ZNSt3__131__partition_with_equals_on_leftB8ue170006INS_17_ClassicAlgPolicyEP12CalendarDateRPFbRKS2_S5_EEET0_S9_S9_T1_, symObjAddr: 0x25B0, symBinAddr: 0x100003854, symSize: 0x240 }
  - { offsetInCU: 0x41F2, offset: 0x41F2, size: 0x8, addend: 0x0, symName: __ZNSt3__118__bitset_partitionB8ue170006INS_17_ClassicAlgPolicyEP12CalendarDateRPFbRKS2_S5_EEENS_4pairIT0_bEESA_SA_T1_, symObjAddr: 0x27F0, symBinAddr: 0x100003A94, symSize: 0x358 }
  - { offsetInCU: 0x42ED, offset: 0x42ED, size: 0x8, addend: 0x0, symName: __ZNSt3__124__swap_bitmap_pos_withinB8ue170006INS_17_ClassicAlgPolicyEP12CalendarDateEEvRT0_S5_RyS6_, symObjAddr: 0x40D0, symBinAddr: 0x100005374, symSize: 0x1E8 }
  - { offsetInCU: 0x43BA, offset: 0x43BA, size: 0x8, addend: 0x0, symName: __ZNSt3__132__partition_with_equals_on_rightB8ue170006INS_17_ClassicAlgPolicyEP12CalendarDateRPFbRKS2_S5_EEENS_4pairIT0_bEESA_SA_T1_, symObjAddr: 0x2B48, symBinAddr: 0x100003DEC, symSize: 0x248 }
  - { offsetInCU: 0x4484, offset: 0x4484, size: 0x8, addend: 0x0, symName: __ZNSt3__127__insertion_sort_incompleteB8ue170006INS_17_ClassicAlgPolicyERPFbRK12CalendarDateS4_EPS2_EEbT1_S9_T0_, symObjAddr: 0x2D90, symBinAddr: 0x100004034, symSize: 0x328 }
  - { offsetInCU: 0x4579, offset: 0x4579, size: 0x8, addend: 0x0, symName: __ZNSt3__111__introsortINS_17_ClassicAlgPolicyERNS_6__lessIvvEEP12CalendarDateLb0EEEvT1_S7_T0_NS_15iterator_traitsIS7_E15difference_typeEb, symObjAddr: 0x455C, symBinAddr: 0x100005800, symSize: 0x470 }
  - { offsetInCU: 0x46A4, offset: 0x46A4, size: 0x8, addend: 0x0, symName: __ZNSt3__126__insertion_sort_unguardedB8ue170006INS_17_ClassicAlgPolicyERNS_6__lessIvvEEP12CalendarDateEEvT1_S7_T0_, symObjAddr: 0x4C4C, symBinAddr: 0x100005EF0, symSize: 0x138 }
  - { offsetInCU: 0x4794, offset: 0x4794, size: 0x8, addend: 0x0, symName: __ZNSt3__111__sift_downB8ue170006INS_17_ClassicAlgPolicyERNS_6__lessIvvEEP12CalendarDateEEvT1_OT0_NS_15iterator_traitsIS7_E15difference_typeES7_, symObjAddr: 0x5D9C, symBinAddr: 0x100007040, symSize: 0x234 }
  - { offsetInCU: 0x4841, offset: 0x4841, size: 0x8, addend: 0x0, symName: __ZNSt3__117__floyd_sift_downB8ue170006INS_17_ClassicAlgPolicyERNS_6__lessIvvEEP12CalendarDateEET1_S7_OT0_NS_15iterator_traitsIS7_E15difference_typeE, symObjAddr: 0x618C, symBinAddr: 0x100007430, symSize: 0x110 }
  - { offsetInCU: 0x48D9, offset: 0x48D9, size: 0x8, addend: 0x0, symName: __ZNSt3__131__partition_with_equals_on_leftB8ue170006INS_17_ClassicAlgPolicyEP12CalendarDateRNS_6__lessIvvEEEET0_S7_S7_T1_, symObjAddr: 0x4F5C, symBinAddr: 0x100006200, symSize: 0x224 }
  - { offsetInCU: 0x4994, offset: 0x4994, size: 0x8, addend: 0x0, symName: __ZNSt3__118__bitset_partitionB8ue170006INS_17_ClassicAlgPolicyEP12CalendarDateRNS_6__lessIvvEEEENS_4pairIT0_bEES8_S8_T1_, symObjAddr: 0x5180, symBinAddr: 0x100006424, symSize: 0x344 }
  - { offsetInCU: 0x4A8F, offset: 0x4A8F, size: 0x8, addend: 0x0, symName: __ZNSt3__132__partition_with_equals_on_rightB8ue170006INS_17_ClassicAlgPolicyEP12CalendarDateRNS_6__lessIvvEEEENS_4pairIT0_bEES8_S8_T1_, symObjAddr: 0x54C4, symBinAddr: 0x100006768, symSize: 0x234 }
  - { offsetInCU: 0x4B59, offset: 0x4B59, size: 0x8, addend: 0x0, symName: __ZNSt3__127__insertion_sort_incompleteB8ue170006INS_17_ClassicAlgPolicyERNS_6__lessIvvEEP12CalendarDateEEbT1_S7_T0_, symObjAddr: 0x56F8, symBinAddr: 0x10000699C, symSize: 0x31C }
  - { offsetInCU: 0x574B, offset: 0x574B, size: 0x8, addend: 0x0, symName: __ZNSt3__1lsB8ue170006INS_11char_traitsIcEEEERNS_13basic_ostreamIcT_EES6_PKc, symObjAddr: 0x4C8, symBinAddr: 0x10000176C, symSize: 0x48 }
  - { offsetInCU: 0x5791, offset: 0x5791, size: 0x8, addend: 0x0, symName: __ZNSt3__14endlB8ue170006IcNS_11char_traitsIcEEEERNS_13basic_ostreamIT_T0_EES7_, symObjAddr: 0x53C, symBinAddr: 0x1000017E0, symSize: 0x58 }
  - { offsetInCU: 0x57D1, offset: 0x57D1, size: 0x8, addend: 0x0, symName: __ZNSt3__1lsB8ue170006IcNS_11char_traitsIcEENS_9allocatorIcEEEERNS_13basic_ostreamIT_T0_EES9_RKNS_12basic_stringIS6_S7_T1_EE, symObjAddr: 0x594, symBinAddr: 0x100001838, symSize: 0x4C }
  - { offsetInCU: 0x5829, offset: 0x5829, size: 0x8, addend: 0x0, symName: __ZNSt3__14sortB8ue170006IP12CalendarDatePFbRKS1_S4_EEEvT_S7_T0_, symObjAddr: 0x778, symBinAddr: 0x100001A1C, symSize: 0x38 }
  - { offsetInCU: 0x5883, offset: 0x5883, size: 0x8, addend: 0x0, symName: __ZNSt3__15beginB8ue170006I12CalendarDateLm6EEEPT_RAT0__S2_, symObjAddr: 0x7B0, symBinAddr: 0x100001A54, symSize: 0x14 }
  - { offsetInCU: 0x58C2, offset: 0x58C2, size: 0x8, addend: 0x0, symName: __ZNSt3__13endB8ue170006I12CalendarDateLm6EEEPT_RAT0__S2_, symObjAddr: 0x7C4, symBinAddr: 0x100001A68, symSize: 0x18 }
  - { offsetInCU: 0x5901, offset: 0x5901, size: 0x8, addend: 0x0, symName: __ZNSt3__14sortB8ue170006IP12CalendarDateEEvT_S3_, symObjAddr: 0x7DC, symBinAddr: 0x100001A80, symSize: 0x2C }
  - { offsetInCU: 0x5943, offset: 0x5943, size: 0x8, addend: 0x0, symName: __ZNSt3__1plB8ue170006IcNS_11char_traitsIcEENS_9allocatorIcEEEENS_12basic_stringIT_T0_T1_EEOS9_SA_, symObjAddr: 0xBB4, symBinAddr: 0x100001E58, symSize: 0x40 }
  - { offsetInCU: 0x599B, offset: 0x599B, size: 0x8, addend: 0x0, symName: __ZNSt3__1plB8ue170006IcNS_11char_traitsIcEENS_9allocatorIcEEEENS_12basic_stringIT_T0_T1_EEOS9_PKS6_, symObjAddr: 0xBF4, symBinAddr: 0x100001E98, symSize: 0x40 }
  - { offsetInCU: 0x59F3, offset: 0x59F3, size: 0x8, addend: 0x0, symName: __ZNSt3__112__to_addressB8ue170006IKcEEPT_S3_, symObjAddr: 0xD30, symBinAddr: 0x100001FD4, symSize: 0x14 }
  - { offsetInCU: 0x5A5B, offset: 0x5A5B, size: 0x8, addend: 0x0, symName: __ZNSt3__116__pad_and_outputB8ue170006IcNS_11char_traitsIcEEEENS_19ostreambuf_iteratorIT_T0_EES6_PKS4_S8_S8_RNS_8ios_baseES4_, symObjAddr: 0x1338, symBinAddr: 0x1000025DC, symSize: 0x240 }
  - { offsetInCU: 0x5B2A, offset: 0x5B2A, size: 0x8, addend: 0x0, symName: __ZNSt3__19use_facetB8ue170006INS_5ctypeIcEEEERKT_RKNS_6localeE, symObjAddr: 0x18C4, symBinAddr: 0x100002B68, symSize: 0x2C }
  - { offsetInCU: 0x5FF7, offset: 0x5FF7, size: 0x8, addend: 0x0, symName: __ZNSt3__118__constexpr_strlenB8ue170006EPKc, symObjAddr: 0x1990, symBinAddr: 0x100002C34, symSize: 0x24 }
  - { offsetInCU: 0x6023, offset: 0x6023, size: 0x8, addend: 0x0, symName: __ZNSt3__111__sort_implB8ue170006INS_17_ClassicAlgPolicyEP12CalendarDatePFbRKS2_S5_EEEvT0_S8_RT1_, symObjAddr: 0x19B4, symBinAddr: 0x100002C58, symSize: 0x78 }
  - { offsetInCU: 0x6086, offset: 0x6086, size: 0x8, addend: 0x0, symName: __ZNSt3__123__debug_randomize_rangeB8ue170006INS_17_ClassicAlgPolicyEP12CalendarDateS3_EEvT0_T1_, symObjAddr: 0x1A2C, symBinAddr: 0x100002CD0, symSize: 0x14 }
  - { offsetInCU: 0x60D7, offset: 0x60D7, size: 0x8, addend: 0x0, symName: __ZNSt3__115__sort_dispatchB8ue170006INS_17_ClassicAlgPolicyEP12CalendarDatePFbRKS2_S5_EEEvT0_S8_RT1_, symObjAddr: 0x1A40, symBinAddr: 0x100002CE4, symSize: 0x64 }
  - { offsetInCU: 0x6155, offset: 0x6155, size: 0x8, addend: 0x0, symName: __ZNSt3__113__unwrap_iterB8ue170006IP12CalendarDateNS_18__unwrap_iter_implIS2_Lb1EEELi0EEEDTclsrT0_8__unwrapclsr3stdE7declvalIT_EEEES6_, symObjAddr: 0x1AA4, symBinAddr: 0x100002D48, symSize: 0x24 }
  - { offsetInCU: 0x6199, offset: 0x6199, size: 0x8, addend: 0x0, symName: __ZNSt3__135__check_strict_weak_ordering_sortedB8ue170006IP12CalendarDatePFbRKS1_S4_EEEvT_S7_RT0_, symObjAddr: 0x1AC8, symBinAddr: 0x100002D6C, symSize: 0x18 }
  - { offsetInCU: 0x61EF, offset: 0x61EF, size: 0x8, addend: 0x0, symName: __ZNSt3__17__log2iB8ue170006IlEET_S1_, symObjAddr: 0x1AE0, symBinAddr: 0x100002D84, symSize: 0x54 }
  - { offsetInCU: 0x6226, offset: 0x6226, size: 0x8, addend: 0x0, symName: __ZNSt3__112__libcpp_clzB8ue170006Em, symObjAddr: 0x1FC4, symBinAddr: 0x100003268, symSize: 0x1C }
  - { offsetInCU: 0x633C, offset: 0x633C, size: 0x8, addend: 0x0, symName: __ZNSt3__124__sort3_maybe_branchlessB8ue170006INS_17_ClassicAlgPolicyERPFbRK12CalendarDateS4_EPS2_EENS_9enable_ifIXntsr21__use_branchless_sortIT0_T1_EE5valueEvE4typeESB_SB_SB_SA_, symObjAddr: 0x2014, symBinAddr: 0x1000032B8, symSize: 0x3C }
  - { offsetInCU: 0x63AD, offset: 0x63AD, size: 0x8, addend: 0x0, symName: __ZNSt3__124__sort4_maybe_branchlessB8ue170006INS_17_ClassicAlgPolicyERPFbRK12CalendarDateS4_EPS2_EENS_9enable_ifIXntsr21__use_branchless_sortIT0_T1_EE5valueEvE4typeESB_SB_SB_SB_SA_, symObjAddr: 0x2050, symBinAddr: 0x1000032F4, symSize: 0x44 }
  - { offsetInCU: 0x642C, offset: 0x642C, size: 0x8, addend: 0x0, symName: __ZNSt3__124__sort5_maybe_branchlessB8ue170006INS_17_ClassicAlgPolicyERPFbRK12CalendarDateS4_EPS2_EENS_9enable_ifIXntsr21__use_branchless_sortIT0_T1_EE5valueEvE4typeESB_SB_SB_SB_SB_SA_, symObjAddr: 0x2094, symBinAddr: 0x100003338, symSize: 0x4C }
  - { offsetInCU: 0x64B9, offset: 0x64B9, size: 0x8, addend: 0x0, symName: __ZNSt3__116__insertion_sortB8ue170006INS_17_ClassicAlgPolicyERPFbRK12CalendarDateS4_EPS2_EEvT1_S9_T0_, symObjAddr: 0x20E0, symBinAddr: 0x100003384, symSize: 0x170 }
  - { offsetInCU: 0x657C, offset: 0x657C, size: 0x8, addend: 0x0, symName: __ZNSt3__114__partial_sortB8ue170006INS_17_ClassicAlgPolicyERPFbRK12CalendarDateS4_EPS2_S8_EET1_S9_S9_T2_RT0_, symObjAddr: 0x2390, symBinAddr: 0x100003634, symSize: 0x94 }
  - { offsetInCU: 0x6604, offset: 0x6604, size: 0x8, addend: 0x0, symName: __ZNSt3__17__sort3B8ue170006INS_17_ClassicAlgPolicyERPFbRK12CalendarDateS4_EPS2_EEjT1_S9_S9_T0_, symObjAddr: 0x2424, symBinAddr: 0x1000036C8, symSize: 0x158 }
  - { offsetInCU: 0x6683, offset: 0x6683, size: 0x8, addend: 0x0, symName: __ZNSt3__19iter_swapB8ue170006IP12CalendarDateS2_EEvT_T0_, symObjAddr: 0x30D0, symBinAddr: 0x100004374, symSize: 0x2C }
  - { offsetInCU: 0x66CB, offset: 0x66CB, size: 0x8, addend: 0x0, symName: __ZNSt3__14swapB8ue170006I12CalendarDateEENS_9enable_ifIXaasr21is_move_constructibleIT_EE5valuesr18is_move_assignableIS3_EE5valueEvE4typeERS3_S6_, symObjAddr: 0x30FC, symBinAddr: 0x1000043A0, symSize: 0x54 }
  - { offsetInCU: 0x671C, offset: 0x671C, size: 0x8, addend: 0x0, symName: __ZNSt3__17__sort4B8ue170006INS_17_ClassicAlgPolicyERPFbRK12CalendarDateS4_EPS2_EEvT1_S9_S9_S9_T0_, symObjAddr: 0x3150, symBinAddr: 0x1000043F4, symSize: 0xC4 }
  - { offsetInCU: 0x6797, offset: 0x6797, size: 0x8, addend: 0x0, symName: __ZNSt3__17__sort5B8ue170006INS_17_ClassicAlgPolicyERPFbRK12CalendarDateS4_EPS2_EEvT1_S9_S9_S9_S9_T0_, symObjAddr: 0x3214, symBinAddr: 0x1000044B8, symSize: 0xF8 }
  - { offsetInCU: 0x6844, offset: 0x6844, size: 0x8, addend: 0x0, symName: __ZNSt3__119__partial_sort_implB8ue170006INS_17_ClassicAlgPolicyERPFbRK12CalendarDateS4_EPS2_S8_EET1_S9_S9_T2_OT0_, symObjAddr: 0x3350, symBinAddr: 0x1000045F4, symSize: 0x114 }
  - { offsetInCU: 0x68DA, offset: 0x68DA, size: 0x8, addend: 0x0, symName: __ZNSt3__111__make_heapB8ue170006INS_17_ClassicAlgPolicyERPFbRK12CalendarDateS4_EPS2_EEvT1_S9_OT0_, symObjAddr: 0x3464, symBinAddr: 0x100004708, symSize: 0xC0 }
  - { offsetInCU: 0x697C, offset: 0x697C, size: 0x8, addend: 0x0, symName: __ZNSt3__111__sort_heapB8ue170006INS_17_ClassicAlgPolicyERPFbRK12CalendarDateS4_EPS2_EEvT1_S9_OT0_, symObjAddr: 0x3768, symBinAddr: 0x100004A0C, symSize: 0xA8 }
  - { offsetInCU: 0x6A1E, offset: 0x6A1E, size: 0x8, addend: 0x0, symName: __ZNSt3__110__pop_heapB8ue170006INS_17_ClassicAlgPolicyEPFbRK12CalendarDateS4_EPS2_EEvT1_S8_RT0_NS_15iterator_traitsIS8_E15difference_typeE, symObjAddr: 0x3810, symBinAddr: 0x100004AB4, symSize: 0x114 }
  - { offsetInCU: 0x6ACE, offset: 0x6ACE, size: 0x8, addend: 0x0, symName: __ZNSt3__19__sift_upB8ue170006INS_17_ClassicAlgPolicyERPFbRK12CalendarDateS4_EPS2_EEvT1_S9_OT0_NS_15iterator_traitsIS9_E15difference_typeE, symObjAddr: 0x3A38, symBinAddr: 0x100004CDC, symSize: 0x14C }
  - { offsetInCU: 0x6B7E, offset: 0x6B7E, size: 0x8, addend: 0x0, symName: __ZNSt3__122__populate_left_bitsetB8ue170006IRPFbRK12CalendarDateS3_EPS1_S1_EEvT0_T_RT1_Ry, symObjAddr: 0x3B84, symBinAddr: 0x100004E28, symSize: 0xAC }
  - { offsetInCU: 0x6C39, offset: 0x6C39, size: 0x8, addend: 0x0, symName: __ZNSt3__123__populate_right_bitsetB8ue170006IRPFbRK12CalendarDateS3_EPS1_S1_EEvT0_T_RT1_Ry, symObjAddr: 0x3C30, symBinAddr: 0x100004ED4, symSize: 0xA4 }
  - { offsetInCU: 0x6CF4, offset: 0x6CF4, size: 0x8, addend: 0x0, symName: __ZNSt3__117__swap_bitmap_posB8ue170006INS_17_ClassicAlgPolicyEP12CalendarDateEEvT0_S4_RyS5_, symObjAddr: 0x3CD4, symBinAddr: 0x100004F78, symSize: 0x104 }
  - { offsetInCU: 0x6D95, offset: 0x6D95, size: 0x8, addend: 0x0, symName: __ZNSt3__133__bitset_partition_partial_blocksB8ue170006INS_17_ClassicAlgPolicyERPFbRK12CalendarDateS4_EPS2_S2_EEvRT1_SA_T0_RT2_RySE_, symObjAddr: 0x3DD8, symBinAddr: 0x10000507C, symSize: 0x2F8 }
  - { offsetInCU: 0x6F16, offset: 0x6F16, size: 0x8, addend: 0x0, symName: __ZNSt3__19make_pairB8ue170006IRP12CalendarDateRbEENS_4pairINS_18__unwrap_ref_decayIT_E4typeENS6_IT0_E4typeEEEOS7_OSA_, symObjAddr: 0x42B8, symBinAddr: 0x10000555C, symSize: 0x38 }
  - { offsetInCU: 0x6F65, offset: 0x6F65, size: 0x8, addend: 0x0, symName: __ZNSt3__112__libcpp_ctzB8ue170006Ey, symObjAddr: 0x42F0, symBinAddr: 0x100005594, symSize: 0x20 }
  - { offsetInCU: 0x6F91, offset: 0x6F91, size: 0x8, addend: 0x0, symName: __ZNSt3__113__libcpp_blsrB8ue170006Ey, symObjAddr: 0x4310, symBinAddr: 0x1000055B4, symSize: 0x2C }
  - { offsetInCU: 0x6FBD, offset: 0x6FBD, size: 0x8, addend: 0x0, symName: __ZNSt3__112__libcpp_clzB8ue170006Ey, symObjAddr: 0x4370, symBinAddr: 0x100005614, symSize: 0x1C }
  - { offsetInCU: 0x7110, offset: 0x7110, size: 0x8, addend: 0x0, symName: __ZNSt3__112__to_addressB8ue170006I12CalendarDateEEPT_S3_, symObjAddr: 0x4424, symBinAddr: 0x1000056C8, symSize: 0x14 }
  - { offsetInCU: 0x7145, offset: 0x7145, size: 0x8, addend: 0x0, symName: __ZNSt3__14sortB8ue170006IP12CalendarDateNS_6__lessIvvEEEEvT_S5_T0_, symObjAddr: 0x4438, symBinAddr: 0x1000056DC, symSize: 0x30 }
  - { offsetInCU: 0x719F, offset: 0x719F, size: 0x8, addend: 0x0, symName: __ZNSt3__111__sort_implB8ue170006INS_17_ClassicAlgPolicyEP12CalendarDateNS_6__lessIvvEEEEvT0_S6_RT1_, symObjAddr: 0x4468, symBinAddr: 0x10000570C, symSize: 0x78 }
  - { offsetInCU: 0x7202, offset: 0x7202, size: 0x8, addend: 0x0, symName: __ZNSt3__115__sort_dispatchB8ue170006INS_17_ClassicAlgPolicyEP12CalendarDateNS_6__lessIvvEEEEvT0_S6_RT1_, symObjAddr: 0x44E0, symBinAddr: 0x100005784, symSize: 0x64 }
  - { offsetInCU: 0x7280, offset: 0x7280, size: 0x8, addend: 0x0, symName: __ZNSt3__135__check_strict_weak_ordering_sortedB8ue170006IP12CalendarDateNS_6__lessIvvEEEEvT_S5_RT0_, symObjAddr: 0x4544, symBinAddr: 0x1000057E8, symSize: 0x18 }
  - { offsetInCU: 0x731B, offset: 0x731B, size: 0x8, addend: 0x0, symName: __ZNSt3__124__sort3_maybe_branchlessB8ue170006INS_17_ClassicAlgPolicyERNS_6__lessIvvEEP12CalendarDateEENS_9enable_ifIXntsr21__use_branchless_sortIT0_T1_EE5valueEvE4typeES9_S9_S9_S8_, symObjAddr: 0x4A18, symBinAddr: 0x100005CBC, symSize: 0x3C }
  - { offsetInCU: 0x738C, offset: 0x738C, size: 0x8, addend: 0x0, symName: __ZNSt3__124__sort4_maybe_branchlessB8ue170006INS_17_ClassicAlgPolicyERNS_6__lessIvvEEP12CalendarDateEENS_9enable_ifIXntsr21__use_branchless_sortIT0_T1_EE5valueEvE4typeES9_S9_S9_S9_S8_, symObjAddr: 0x4A54, symBinAddr: 0x100005CF8, symSize: 0x44 }
  - { offsetInCU: 0x740B, offset: 0x740B, size: 0x8, addend: 0x0, symName: __ZNSt3__124__sort5_maybe_branchlessB8ue170006INS_17_ClassicAlgPolicyERNS_6__lessIvvEEP12CalendarDateEENS_9enable_ifIXntsr21__use_branchless_sortIT0_T1_EE5valueEvE4typeES9_S9_S9_S9_S9_S8_, symObjAddr: 0x4A98, symBinAddr: 0x100005D3C, symSize: 0x4C }
  - { offsetInCU: 0x7498, offset: 0x7498, size: 0x8, addend: 0x0, symName: __ZNSt3__116__insertion_sortB8ue170006INS_17_ClassicAlgPolicyERNS_6__lessIvvEEP12CalendarDateEEvT1_S7_T0_, symObjAddr: 0x4AE4, symBinAddr: 0x100005D88, symSize: 0x168 }
  - { offsetInCU: 0x755B, offset: 0x755B, size: 0x8, addend: 0x0, symName: __ZNSt3__114__partial_sortB8ue170006INS_17_ClassicAlgPolicyERNS_6__lessIvvEEP12CalendarDateS6_EET1_S7_S7_T2_RT0_, symObjAddr: 0x4D84, symBinAddr: 0x100006028, symSize: 0x94 }
  - { offsetInCU: 0x75E3, offset: 0x75E3, size: 0x8, addend: 0x0, symName: __ZNSt3__17__sort3B8ue170006INS_17_ClassicAlgPolicyERNS_6__lessIvvEEP12CalendarDateEEjT1_S7_S7_T0_, symObjAddr: 0x4E18, symBinAddr: 0x1000060BC, symSize: 0x144 }
  - { offsetInCU: 0x7662, offset: 0x7662, size: 0x8, addend: 0x0, symName: __ZNSt3__17__sort4B8ue170006INS_17_ClassicAlgPolicyERNS_6__lessIvvEEP12CalendarDateEEvT1_S7_S7_S7_T0_, symObjAddr: 0x5A2C, symBinAddr: 0x100006CD0, symSize: 0xB8 }
  - { offsetInCU: 0x76DD, offset: 0x76DD, size: 0x8, addend: 0x0, symName: __ZNSt3__17__sort5B8ue170006INS_17_ClassicAlgPolicyERNS_6__lessIvvEEP12CalendarDateEEvT1_S7_S7_S7_S7_T0_, symObjAddr: 0x5AE4, symBinAddr: 0x100006D88, symSize: 0xE8 }
  - { offsetInCU: 0x7766, offset: 0x7766, size: 0x8, addend: 0x0, symName: __ZNSt3__119__partial_sort_implB8ue170006INS_17_ClassicAlgPolicyERNS_6__lessIvvEEP12CalendarDateS6_EET1_S7_S7_T2_OT0_, symObjAddr: 0x5BCC, symBinAddr: 0x100006E70, symSize: 0x110 }
  - { offsetInCU: 0x77FC, offset: 0x77FC, size: 0x8, addend: 0x0, symName: __ZNSt3__111__make_heapB8ue170006INS_17_ClassicAlgPolicyERNS_6__lessIvvEEP12CalendarDateEEvT1_S7_OT0_, symObjAddr: 0x5CDC, symBinAddr: 0x100006F80, symSize: 0xC0 }
  - { offsetInCU: 0x789E, offset: 0x789E, size: 0x8, addend: 0x0, symName: __ZNSt3__111__sort_heapB8ue170006INS_17_ClassicAlgPolicyERNS_6__lessIvvEEP12CalendarDateEEvT1_S7_OT0_, symObjAddr: 0x5FD0, symBinAddr: 0x100007274, symSize: 0xA8 }
  - { offsetInCU: 0x7940, offset: 0x7940, size: 0x8, addend: 0x0, symName: __ZNSt3__110__pop_heapB8ue170006INS_17_ClassicAlgPolicyENS_6__lessIvvEEP12CalendarDateEEvT1_S6_RT0_NS_15iterator_traitsIS6_E15difference_typeE, symObjAddr: 0x6078, symBinAddr: 0x10000731C, symSize: 0x114 }
  - { offsetInCU: 0x79F0, offset: 0x79F0, size: 0x8, addend: 0x0, symName: __ZNSt3__19__sift_upB8ue170006INS_17_ClassicAlgPolicyERNS_6__lessIvvEEP12CalendarDateEEvT1_S7_OT0_NS_15iterator_traitsIS7_E15difference_typeE, symObjAddr: 0x629C, symBinAddr: 0x100007540, symSize: 0x144 }
  - { offsetInCU: 0x7AA0, offset: 0x7AA0, size: 0x8, addend: 0x0, symName: __ZNSt3__122__populate_left_bitsetB8ue170006IRNS_6__lessIvvEEP12CalendarDateS4_EEvT0_T_RT1_Ry, symObjAddr: 0x63E0, symBinAddr: 0x100007684, symSize: 0xA8 }
  - { offsetInCU: 0x7B5B, offset: 0x7B5B, size: 0x8, addend: 0x0, symName: __ZNSt3__123__populate_right_bitsetB8ue170006IRNS_6__lessIvvEEP12CalendarDateS4_EEvT0_T_RT1_Ry, symObjAddr: 0x6488, symBinAddr: 0x10000772C, symSize: 0xA0 }
  - { offsetInCU: 0x7C16, offset: 0x7C16, size: 0x8, addend: 0x0, symName: __ZNSt3__133__bitset_partition_partial_blocksB8ue170006INS_17_ClassicAlgPolicyERNS_6__lessIvvEEP12CalendarDateS5_EEvRT1_S8_T0_RT2_RySC_, symObjAddr: 0x6528, symBinAddr: 0x1000077CC, symSize: 0x2F0 }
  - { offsetInCU: 0xA515, offset: 0xA515, size: 0x8, addend: 0x0, symName: __Z16CompareDateItemsRK12CalendarDateS1_, symObjAddr: 0x0, symBinAddr: 0x1000012A4, symSize: 0x30 }
  - { offsetInCU: 0xA54F, offset: 0xA54F, size: 0x8, addend: 0x0, symName: __ZNK12CalendarDateltERKS_, symObjAddr: 0x30, symBinAddr: 0x1000012D4, symSize: 0xD8 }
  - { offsetInCU: 0xA581, offset: 0xA581, size: 0x8, addend: 0x0, symName: _main, symObjAddr: 0x108, symBinAddr: 0x1000013AC, symSize: 0x37C }
  - { offsetInCU: 0xA5FB, offset: 0xA5FB, size: 0x8, addend: 0x0, symName: __ZN12CalendarDateC1Eiii, symObjAddr: 0x484, symBinAddr: 0x100001728, symSize: 0x44 }
  - { offsetInCU: 0xA64D, offset: 0xA64D, size: 0x8, addend: 0x0, symName: __ZNSt3__113basic_ostreamIcNS_11char_traitsIcEEElsB8ue170006EPFRS3_S4_E, symObjAddr: 0x510, symBinAddr: 0x1000017B4, symSize: 0x2C }
  - { offsetInCU: 0xA67F, offset: 0xA67F, size: 0x8, addend: 0x0, symName: __ZN12CalendarDate8ToStringEv, symObjAddr: 0x5E0, symBinAddr: 0x100001884, symSize: 0x198 }
  - { offsetInCU: 0xA6A2, offset: 0xA6A2, size: 0x8, addend: 0x0, symName: __ZlsRNSt3__113basic_ostreamIcNS_11char_traitsIcEEEERK12CalendarDate, symObjAddr: 0x808, symBinAddr: 0x100001AAC, symSize: 0x288 }
  - { offsetInCU: 0xA6EB, offset: 0xA6EB, size: 0x8, addend: 0x0, symName: __ZN12CalendarDateppEi, symObjAddr: 0xAC0, symBinAddr: 0x100001D64, symSize: 0x9C }
  - { offsetInCU: 0xA727, offset: 0xA727, size: 0x8, addend: 0x0, symName: __ZN12CalendarDateppEv, symObjAddr: 0xB5C, symBinAddr: 0x100001E00, symSize: 0x20 }
  - { offsetInCU: 0xA74C, offset: 0xA74C, size: 0x8, addend: 0x0, symName: __ZN12CalendarDateC2Eiii, symObjAddr: 0xB7C, symBinAddr: 0x100001E20, symSize: 0x38 }
  - { offsetInCU: 0xA79F, offset: 0xA79F, size: 0x8, addend: 0x0, symName: __ZNSt3__112basic_stringIcNS_11char_traitsIcEENS_9allocatorIcEEE6appendB8ue170006ERKS5_, symObjAddr: 0xC34, symBinAddr: 0x100001ED8, symSize: 0x4C }
  - { offsetInCU: 0xA7D2, offset: 0xA7D2, size: 0x8, addend: 0x0, symName: __ZNSt3__112basic_stringIcNS_11char_traitsIcEENS_9allocatorIcEEEC1B8ue170006EOS5_, symObjAddr: 0xC80, symBinAddr: 0x100001F24, symSize: 0x34 }
  - { offsetInCU: 0xA809, offset: 0xA809, size: 0x8, addend: 0x0, symName: __ZNKSt3__112basic_stringIcNS_11char_traitsIcEENS_9allocatorIcEEE4dataB8ue170006Ev, symObjAddr: 0xCB4, symBinAddr: 0x100001F58, symSize: 0x28 }
  - { offsetInCU: 0xA82D, offset: 0xA82D, size: 0x8, addend: 0x0, symName: __ZNKSt3__112basic_stringIcNS_11char_traitsIcEENS_9allocatorIcEEE4sizeB8ue170006Ev, symObjAddr: 0xCDC, symBinAddr: 0x100001F80, symSize: 0x54 }
  - { offsetInCU: 0xA851, offset: 0xA851, size: 0x8, addend: 0x0, symName: __ZNKSt3__112basic_stringIcNS_11char_traitsIcEENS_9allocatorIcEEE13__get_pointerB8ue170006Ev, symObjAddr: 0xD44, symBinAddr: 0x100001FE8, symSize: 0x54 }
  - { offsetInCU: 0xA875, offset: 0xA875, size: 0x8, addend: 0x0, symName: __ZNKSt3__112basic_stringIcNS_11char_traitsIcEENS_9allocatorIcEEE9__is_longB8ue170006Ev, symObjAddr: 0xD98, symBinAddr: 0x10000203C, symSize: 0x38 }
  - { offsetInCU: 0xA899, offset: 0xA899, size: 0x8, addend: 0x0, symName: __ZNKSt3__112basic_stringIcNS_11char_traitsIcEENS_9allocatorIcEEE18__get_long_pointerB8ue170006Ev, symObjAddr: 0xDD0, symBinAddr: 0x100002074, symSize: 0x28 }
  - { offsetInCU: 0xA8BD, offset: 0xA8BD, size: 0x8, addend: 0x0, symName: __ZNKSt3__112basic_stringIcNS_11char_traitsIcEENS_9allocatorIcEEE19__get_short_pointerB8ue170006Ev, symObjAddr: 0xDF8, symBinAddr: 0x10000209C, symSize: 0x28 }
  - { offsetInCU: 0xA8E1, offset: 0xA8E1, size: 0x8, addend: 0x0, symName: __ZNKSt3__117__compressed_pairINS_12basic_stringIcNS_11char_traitsIcEENS_9allocatorIcEEE5__repES5_E5firstB8ue170006Ev, symObjAddr: 0xE20, symBinAddr: 0x1000020C4, symSize: 0x24 }
  - { offsetInCU: 0xA904, offset: 0xA904, size: 0x8, addend: 0x0, symName: __ZNKSt3__122__compressed_pair_elemINS_12basic_stringIcNS_11char_traitsIcEENS_9allocatorIcEEE5__repELi0ELb0EE5__getB8ue170006Ev, symObjAddr: 0xE44, symBinAddr: 0x1000020E8, symSize: 0x14 }
  - { offsetInCU: 0xA929, offset: 0xA929, size: 0x8, addend: 0x0, symName: __ZNSt3__114pointer_traitsIPKcE10pointer_toB8ue170006ERS1_, symObjAddr: 0xE58, symBinAddr: 0x1000020FC, symSize: 0x14 }
  - { offsetInCU: 0xA94C, offset: 0xA94C, size: 0x8, addend: 0x0, symName: __ZNKSt3__112basic_stringIcNS_11char_traitsIcEENS_9allocatorIcEEE15__get_long_sizeB8ue170006Ev, symObjAddr: 0xE6C, symBinAddr: 0x100002110, symSize: 0x28 }
  - { offsetInCU: 0xA970, offset: 0xA970, size: 0x8, addend: 0x0, symName: __ZNKSt3__112basic_stringIcNS_11char_traitsIcEENS_9allocatorIcEEE16__get_short_sizeB8ue170006Ev, symObjAddr: 0xE94, symBinAddr: 0x100002138, symSize: 0x34 }
  - { offsetInCU: 0xA994, offset: 0xA994, size: 0x8, addend: 0x0, symName: __ZNSt3__112basic_stringIcNS_11char_traitsIcEENS_9allocatorIcEEEC2B8ue170006EOS5_, symObjAddr: 0xEC8, symBinAddr: 0x10000216C, symSize: 0x50 }
  - { offsetInCU: 0xA9CB, offset: 0xA9CB, size: 0x8, addend: 0x0, symName: __ZNSt3__112basic_stringIcNS_11char_traitsIcEENS_9allocatorIcEEE14__default_initB8ue170006Ev, symObjAddr: 0xF18, symBinAddr: 0x1000021BC, symSize: 0x40 }
  - { offsetInCU: 0xA9EF, offset: 0xA9EF, size: 0x8, addend: 0x0, symName: __ZNSt3__117__compressed_pairINS_12basic_stringIcNS_11char_traitsIcEENS_9allocatorIcEEE5__repES5_E5firstB8ue170006Ev, symObjAddr: 0xF64, symBinAddr: 0x100002208, symSize: 0x24 }
  - { offsetInCU: 0xAA12, offset: 0xAA12, size: 0x8, addend: 0x0, symName: __ZNSt3__122__compressed_pair_elemINS_12basic_stringIcNS_11char_traitsIcEENS_9allocatorIcEEE5__repELi0ELb0EE5__getB8ue170006Ev, symObjAddr: 0xF88, symBinAddr: 0x10000222C, symSize: 0x14 }
  - { offsetInCU: 0xAA37, offset: 0xAA37, size: 0x8, addend: 0x0, symName: __ZNSt3__112basic_stringIcNS_11char_traitsIcEENS_9allocatorIcEEEC1B8ue170006Ev, symObjAddr: 0xF9C, symBinAddr: 0x100002240, symSize: 0x2C }
  - { offsetInCU: 0xAA5F, offset: 0xAA5F, size: 0x8, addend: 0x0, symName: __ZNSt3__112basic_stringIcNS_11char_traitsIcEENS_9allocatorIcEEEaSB8ue170006EPKc, symObjAddr: 0xFC8, symBinAddr: 0x10000226C, symSize: 0x2C }
  - { offsetInCU: 0xAA92, offset: 0xAA92, size: 0x8, addend: 0x0, symName: __ZNSt3__112basic_stringIcNS_11char_traitsIcEENS_9allocatorIcEEEC2B8ue170006Ev, symObjAddr: 0xFF4, symBinAddr: 0x100002298, symSize: 0x44 }
  - { offsetInCU: 0xAABF, offset: 0xAABF, size: 0x8, addend: 0x0, symName: __ZNSt3__117__compressed_pairINS_12basic_stringIcNS_11char_traitsIcEENS_9allocatorIcEEE5__repES5_EC1B8ue170006INS_18__default_init_tagESA_EEOT_OT0_, symObjAddr: 0x1038, symBinAddr: 0x1000022DC, symSize: 0x3C }
  - { offsetInCU: 0xAB15, offset: 0xAB15, size: 0x8, addend: 0x0, symName: __ZNSt3__117__compressed_pairINS_12basic_stringIcNS_11char_traitsIcEENS_9allocatorIcEEE5__repES5_EC2B8ue170006INS_18__default_init_tagESA_EEOT_OT0_, symObjAddr: 0x1074, symBinAddr: 0x100002318, symSize: 0x3C }
  - { offsetInCU: 0xAB6B, offset: 0xAB6B, size: 0x8, addend: 0x0, symName: __ZNSt3__122__compressed_pair_elemINS_12basic_stringIcNS_11char_traitsIcEENS_9allocatorIcEEE5__repELi0ELb0EEC2B8ue170006ENS_18__default_init_tagE, symObjAddr: 0x10B0, symBinAddr: 0x100002354, symSize: 0x14 }
  - { offsetInCU: 0xAB9F, offset: 0xAB9F, size: 0x8, addend: 0x0, symName: __ZNSt3__122__compressed_pair_elemINS_9allocatorIcEELi1ELb1EEC2B8ue170006ENS_18__default_init_tagE, symObjAddr: 0x10C4, symBinAddr: 0x100002368, symSize: 0x2C }
  - { offsetInCU: 0xABD2, offset: 0xABD2, size: 0x8, addend: 0x0, symName: __ZNSt3__19allocatorIcEC2B8ue170006Ev, symObjAddr: 0x10F0, symBinAddr: 0x100002394, symSize: 0x2C }
  - { offsetInCU: 0xABFA, offset: 0xABFA, size: 0x8, addend: 0x0, symName: __ZNSt3__116__non_trivial_ifILb1ENS_9allocatorIcEEEC2B8ue170006Ev, symObjAddr: 0x111C, symBinAddr: 0x1000023C0, symSize: 0x14 }
  - { offsetInCU: 0xAC40, offset: 0xAC40, size: 0x8, addend: 0x0, symName: __ZNKSt3__113basic_ostreamIcNS_11char_traitsIcEEE6sentrycvbB8ue170006Ev, symObjAddr: 0x131C, symBinAddr: 0x1000025C0, symSize: 0x1C }
  - { offsetInCU: 0xAC65, offset: 0xAC65, size: 0x8, addend: 0x0, symName: __ZNSt3__119ostreambuf_iteratorIcNS_11char_traitsIcEEEC1B8ue170006ERNS_13basic_ostreamIcS2_EE, symObjAddr: 0x1578, symBinAddr: 0x10000281C, symSize: 0x34 }
  - { offsetInCU: 0xAC9B, offset: 0xAC9B, size: 0x8, addend: 0x0, symName: __ZNKSt3__18ios_base5flagsB8ue170006Ev, symObjAddr: 0x15AC, symBinAddr: 0x100002850, symSize: 0x18 }
  - { offsetInCU: 0xACC2, offset: 0xACC2, size: 0x8, addend: 0x0, symName: __ZNKSt3__19basic_iosIcNS_11char_traitsIcEEE4fillB8ue170006Ev, symObjAddr: 0x15C4, symBinAddr: 0x100002868, symSize: 0x64 }
  - { offsetInCU: 0xACE8, offset: 0xACE8, size: 0x8, addend: 0x0, symName: __ZNKSt3__119ostreambuf_iteratorIcNS_11char_traitsIcEEE6failedB8ue170006Ev, symObjAddr: 0x1628, symBinAddr: 0x1000028CC, symSize: 0x24 }
  - { offsetInCU: 0xAD0D, offset: 0xAD0D, size: 0x8, addend: 0x0, symName: __ZNSt3__19basic_iosIcNS_11char_traitsIcEEE8setstateB8ue170006Ej, symObjAddr: 0x164C, symBinAddr: 0x1000028F0, symSize: 0x2C }
  - { offsetInCU: 0xAD40, offset: 0xAD40, size: 0x8, addend: 0x0, symName: __ZNKSt3__18ios_base5widthB8ue170006Ev, symObjAddr: 0x1678, symBinAddr: 0x10000291C, symSize: 0x18 }
  - { offsetInCU: 0xAD67, offset: 0xAD67, size: 0x8, addend: 0x0, symName: __ZNSt3__115basic_streambufIcNS_11char_traitsIcEEE5sputnB8ue170006EPKcl, symObjAddr: 0x1690, symBinAddr: 0x100002934, symSize: 0x3C }
  - { offsetInCU: 0xADA7, offset: 0xADA7, size: 0x8, addend: 0x0, symName: __ZNSt3__112basic_stringIcNS_11char_traitsIcEENS_9allocatorIcEEEC1B8ue170006Emc, symObjAddr: 0x16CC, symBinAddr: 0x100002970, symSize: 0x3C }
  - { offsetInCU: 0xADED, offset: 0xADED, size: 0x8, addend: 0x0, symName: __ZNSt3__18ios_base5widthB8ue170006El, symObjAddr: 0x1708, symBinAddr: 0x1000029AC, symSize: 0x2C }
  - { offsetInCU: 0xAE32, offset: 0xAE32, size: 0x8, addend: 0x0, symName: __ZNSt3__112basic_stringIcNS_11char_traitsIcEENS_9allocatorIcEEEC2B8ue170006Emc, symObjAddr: 0x1734, symBinAddr: 0x1000029D8, symSize: 0x4C }
  - { offsetInCU: 0xAE78, offset: 0xAE78, size: 0x8, addend: 0x0, symName: __ZNSt3__119ostreambuf_iteratorIcNS_11char_traitsIcEEEC2B8ue170006ERNS_13basic_ostreamIcS2_EE, symObjAddr: 0x1780, symBinAddr: 0x100002A24, symSize: 0x54 }
  - { offsetInCU: 0xAEAE, offset: 0xAEAE, size: 0x8, addend: 0x0, symName: __ZNKSt3__19basic_iosIcNS_11char_traitsIcEEE5rdbufB8ue170006Ev, symObjAddr: 0x17D4, symBinAddr: 0x100002A78, symSize: 0x24 }
  - { offsetInCU: 0xAED4, offset: 0xAED4, size: 0x8, addend: 0x0, symName: __ZNKSt3__18ios_base5rdbufB8ue170006Ev, symObjAddr: 0x17F8, symBinAddr: 0x100002A9C, symSize: 0x18 }
  - { offsetInCU: 0xAEF9, offset: 0xAEF9, size: 0x8, addend: 0x0, symName: __ZNSt3__111char_traitsIcE11eq_int_typeB8ue170006Eii, symObjAddr: 0x1810, symBinAddr: 0x100002AB4, symSize: 0x28 }
  - { offsetInCU: 0xAF2C, offset: 0xAF2C, size: 0x8, addend: 0x0, symName: __ZNSt3__111char_traitsIcE3eofB8ue170006Ev, symObjAddr: 0x1838, symBinAddr: 0x100002ADC, symSize: 0x8 }
  - { offsetInCU: 0xAF40, offset: 0xAF40, size: 0x8, addend: 0x0, symName: __ZNKSt3__19basic_iosIcNS_11char_traitsIcEEE5widenB8ue170006Ec, symObjAddr: 0x1840, symBinAddr: 0x100002AE4, symSize: 0x84 }
  - { offsetInCU: 0xAFAD, offset: 0xAFAD, size: 0x8, addend: 0x0, symName: __ZNKSt3__15ctypeIcE5widenB8ue170006Ec, symObjAddr: 0x18F0, symBinAddr: 0x100002B94, symSize: 0x38 }
  - { offsetInCU: 0xAFE0, offset: 0xAFE0, size: 0x8, addend: 0x0, symName: __ZNSt3__18ios_base8setstateB8ue170006Ej, symObjAddr: 0x1928, symBinAddr: 0x100002BCC, symSize: 0x34 }
  - { offsetInCU: 0xB016, offset: 0xB016, size: 0x8, addend: 0x0, symName: __ZNSt3__111char_traitsIcE6lengthB8ue170006EPKc, symObjAddr: 0x195C, symBinAddr: 0x100002C00, symSize: 0x34 }
  - { offsetInCU: 0xB03E, offset: 0xB03E, size: 0x8, addend: 0x0, symName: __ZNSt3__18_IterOpsINS_17_ClassicAlgPolicyEE9iter_swapB8ue170006IRP12CalendarDateS6_EEvOT_OT0_, symObjAddr: 0x1FE0, symBinAddr: 0x100003284, symSize: 0x34 }
  - { offsetInCU: 0xB086, offset: 0xB086, size: 0x8, addend: 0x0, symName: __ZNSt3__18_IterOpsINS_17_ClassicAlgPolicyEE9iter_swapB8ue170006IRP12CalendarDateS5_EEvOT_OT0_, symObjAddr: 0x257C, symBinAddr: 0x100003820, symSize: 0x34 }
  - { offsetInCU: 0xB0CE, offset: 0xB0CE, size: 0x8, addend: 0x0, symName: __ZNSt3__18_IterOpsINS_17_ClassicAlgPolicyEE11__iter_moveB8ue170006IRP12CalendarDateEENS_9enable_ifIXsr12is_referenceIDTdeclsr3stdE7declvalIRT_EEEEE5valueEDTclsr3stdE4movedeclsr3stdE7declvalIS9_EEEEE4typeEOS8_, symObjAddr: 0x330C, symBinAddr: 0x1000045B0, symSize: 0x28 }
  - { offsetInCU: 0xB0FA, offset: 0xB0FA, size: 0x8, addend: 0x0, symName: __ZNSt3__18_IterOpsINS_17_ClassicAlgPolicyEE25__validate_iter_referenceB8ue170006IRP12CalendarDateEEvv, symObjAddr: 0x3334, symBinAddr: 0x1000045D8, symSize: 0x4 }
  - { offsetInCU: 0xB118, offset: 0xB118, size: 0x8, addend: 0x0, symName: __ZNSt3__18_IterOpsINS_17_ClassicAlgPolicyEE4nextB8ue170006IP12CalendarDateEET_S6_S6_, symObjAddr: 0x3338, symBinAddr: 0x1000045DC, symSize: 0x18 }
  - { offsetInCU: 0xB14F, offset: 0xB14F, size: 0x8, addend: 0x0, symName: __ZNSt3__18_IterOpsINS_17_ClassicAlgPolicyEE9iter_swapB8ue170006IP12CalendarDateS5_EEvOT_OT0_, symObjAddr: 0x433C, symBinAddr: 0x1000055E0, symSize: 0x34 }
  - { offsetInCU: 0xB1B0, offset: 0xB1B0, size: 0x8, addend: 0x0, symName: __ZNSt3__14pairIP12CalendarDatebEC1B8ue170006IRS2_RbLPv0EEEOT_OT0_, symObjAddr: 0x438C, symBinAddr: 0x100005630, symSize: 0x3C }
  - { offsetInCU: 0xB20C, offset: 0xB20C, size: 0x8, addend: 0x0, symName: __ZNSt3__14pairIP12CalendarDatebEC2B8ue170006IRS2_RbLPv0EEEOT_OT0_, symObjAddr: 0x43C8, symBinAddr: 0x10000566C, symSize: 0x38 }
  - { offsetInCU: 0xB269, offset: 0xB269, size: 0x8, addend: 0x0, symName: __ZNSt3__118__unwrap_iter_implIP12CalendarDateLb1EE8__unwrapB8ue170006ES2_, symObjAddr: 0x4400, symBinAddr: 0x1000056A4, symSize: 0x24 }
  - { offsetInCU: 0xB296, offset: 0xB296, size: 0x8, addend: 0x0, symName: __ZNKSt3__16__lessIvvEclB8ue170006I12CalendarDateS3_EEbRKT_RKT0_, symObjAddr: 0x49E4, symBinAddr: 0x100005C88, symSize: 0x34 }
...
